; Function Attrs: nounwind memory(readwrite, argmem: read) uwtable
define internal fastcc range(i32 0, 2) i32 @arkode_butcher_order5d(ptr noundef readonly captures(address_is_null) %0, ptr noundef readonly captures(address_is_null) %1, ptr noundef readonly captures(address_is_null) %2, ptr noundef readonly captures(address_is_null) %3, ptr noundef readonly captures(address_is_null) %4, i32 noundef %5) unnamed_addr #10 {
  %7 = sext i32 %5 to i64
  %8 = tail call noalias ptr @calloc(i64 noundef %7, i64 noundef 8) #16
  %9 = tail call noalias ptr @calloc(i64 noundef %7, i64 noundef 8) #16
  %10 = icmp eq ptr %3, null
  %11 = icmp eq ptr %4, null
  %or.cond.i = or i1 %10, %11
  %12 = icmp eq ptr %8, null
  %or.cond3.i = or i1 %or.cond.i, %12
  %13 = icmp slt i32 %5, 1
  %or.cond5.i = or i1 %13, %or.cond3.i
  br i1 %or.cond5.i, label %arkode_butcher_vv.exit, label %.preheader.preheader.i

.preheader.preheader.i:                           ; preds = %6
  %wide.trip.count.i = zext nneg i32 %5 to i64
  br label %.preheader.i

.preheader.i:                                     ; preds = %.preheader.i, %.preheader.preheader.i
  %indvars.iv.i = phi i64 [ 0, %.preheader.preheader.i ], [ %indvars.iv.next.i, %.preheader.i ]
  %14 = getelementptr inbounds nuw double, ptr %3, i64 %indvars.iv.i
  %15 = load double, ptr %14, align 8, !tbaa !18
  %16 = getelementptr inbounds nuw double, ptr %4, i64 %indvars.iv.i
  %17 = load double, ptr %16, align 8, !tbaa !18
  %18 = fmul double %15, %17
  %19 = getelementptr inbounds nuw double, ptr %8, i64 %indvars.iv.i
  store double %18, ptr %19, align 8, !tbaa !18
  %indvars.iv.next.i = add nuw nsw i64 %indvars.iv.i, 1
  %exitcond.not.i = icmp eq i64 %indvars.iv.next.i, %wide.trip.count.i
  br i1 %exitcond.not.i, label %20, label %.preheader.i

arkode_butcher_vv.exit:                           ; preds = %6
  tail call void @free(ptr noundef %8) #17
  tail call void @free(ptr noundef %9) #17
  br label %arkode_butcher_dot.exit

20:                                               ; preds = %.preheader.i
  %21 = icmp eq ptr %2, null
  %22 = icmp eq ptr %9, null
  %or.cond3.i29 = or i1 %21, %22
  br i1 %or.cond3.i29, label %arkode_butcher_mv.exit, label %.preheader.us.i

.preheader.us.i:                                  ; preds = %20, %._crit_edge.us.i
  %indvars.iv40.i = phi i64 [ %indvars.iv.next41.i, %._crit_edge.us.i ], [ 0, %20 ]
  %23 = getelementptr inbounds nuw ptr, ptr %2, i64 %indvars.iv40.i
  %24 = load ptr, ptr %23, align 8, !tbaa !12
  %25 = getelementptr inbounds nuw double, ptr %9, i64 %indvars.iv40.i
  %.promoted.us.i = load double, ptr %25, align 8, !tbaa !18
  br label %26

26:                                               ; preds = %26, %.preheader.us.i
  %indvars.iv.i31 = phi i64 [ 0, %.preheader.us.i ], [ %indvars.iv.next.i32, %26 ]
  %27 = phi double [ %.promoted.us.i, %.preheader.us.i ], [ %32, %26 ]
  %28 = getelementptr inbounds nuw double, ptr %24, i64 %indvars.iv.i31
  %29 = load double, ptr %28, align 8, !tbaa !18
  %30 = getelementptr inbounds nuw double, ptr %8, i64 %indvars.iv.i31
  %31 = load double, ptr %30, align 8, !tbaa !18
  %32 = tail call double @llvm.fmuladd.f64(double %29, double %31, double %27)
  %indvars.iv.next.i32 = add nuw nsw i64 %indvars.iv.i31, 1
  %exitcond.not.i33 = icmp eq i64 %indvars.iv.next.i32, %wide.trip.count.i
  br i1 %exitcond.not.i33, label %._crit_edge.us.i, label %26

._crit_edge.us.i:                                 ; preds = %26
  store double %32, ptr %25, align 8, !tbaa !18
  %indvars.iv.next41.i = add nuw nsw i64 %indvars.iv40.i, 1
  %exitcond44.not.i = icmp eq i64 %indvars.iv.next41.i, %wide.trip.count.i
  br i1 %exitcond44.not.i, label %33, label %.preheader.us.i

arkode_butcher_mv.exit:                           ; preds = %20
  tail call void @free(ptr noundef nonnull %8) #17
  tail call void @free(ptr noundef %9) #17
  br label %arkode_butcher_dot.exit

33:                                               ; preds = %._crit_edge.us.i
  %34 = icmp eq ptr %0, null
  %35 = icmp eq ptr %1, null
  %or.cond.i34 = or i1 %34, %35
  br i1 %or.cond.i34, label %arkode_butcher_vv.exit44, label %.preheader.i39

.preheader.i39:                                   ; preds = %33, %.preheader.i39
  %indvars.iv.i40 = phi i64 [ %indvars.iv.next.i41, %.preheader.i39 ], [ 0, %33 ]
  %36 = getelementptr inbounds nuw double, ptr %0, i64 %indvars.iv.i40
  %37 = load double, ptr %36, align 8, !tbaa !18
  %38 = getelementptr inbounds nuw double, ptr %1, i64 %indvars.iv.i40
  %39 = load double, ptr %38, align 8, !tbaa !18
  %40 = fmul double %37, %39
  %41 = getelementptr inbounds nuw double, ptr %8, i64 %indvars.iv.i40
  store double %40, ptr %41, align 8, !tbaa !18
  %indvars.iv.next.i41 = add nuw nsw i64 %indvars.iv.i40, 1
  %exitcond.not.i42 = icmp eq i64 %indvars.iv.next.i41, %wide.trip.count.i
  br i1 %exitcond.not.i42, label %.preheader, label %.preheader.i39

arkode_butcher_vv.exit44:                         ; preds = %33
  tail call void @free(ptr noundef nonnull %8) #17
  tail call void @free(ptr noundef nonnull %9) #17
  br label %arkode_butcher_dot.exit

.preheader:                                       ; preds = %.preheader.i39, %.preheader
  %indvars.iv.i48 = phi i64 [ %indvars.iv.next.i49, %.preheader ], [ 0, %.preheader.i39 ]
  %42 = phi double [ %47, %.preheader ], [ 0.000000e+00, %.preheader.i39 ]
  %43 = getelementptr inbounds nuw double, ptr %8, i64 %indvars.iv.i48
  %44 = load double, ptr %43, align 8, !tbaa !18
  %45 = getelementptr inbounds nuw double, ptr %9, i64 %indvars.iv.i48
  %46 = load double, ptr %45, align 8, !tbaa !18
  %47 = tail call double @llvm.fmuladd.f64(double %44, double %46, double %42)
  %indvars.iv.next.i49 = add nuw nsw i64 %indvars.iv.i48, 1
  %exitcond.not.i50 = icmp eq i64 %indvars.iv.next.i49, %wide.trip.count.i
  br i1 %exitcond.not.i50, label %48, label %.preheader

48:                                               ; preds = %.preheader
  tail call void @free(ptr noundef nonnull %8) #17
  tail call void @free(ptr noundef nonnull %9) #17
  %49 = fadd double %47, 0xBFB1111111111111
  %50 = tail call double @llvm.fabs.f64(double %49)
  %51 = fcmp ule double %50, 0x3E50000000000000
  %52 = zext i1 %51 to i32
  br label %arkode_butcher_dot.exit

arkode_butcher_dot.exit:                          ; preds = %48, %arkode_butcher_vv.exit44, %arkode_butcher_mv.exit, %arkode_butcher_vv.exit
  %.0 = phi i32 [ 0, %arkode_butcher_vv.exit ], [ 0, %arkode_butcher_mv.exit ], [ 0, %arkode_butcher_vv.exit44 ], [ %52, %48 ]
  ret i32 %.0
}